; Function Attrs: mustprogress uwtable
define dso_local void @_ZN11conformance18ConformanceRequestC2EPN6google8protobuf5ArenaE(ptr nocapture noundef nonnull writeonly align 8 dereferenceable(64) %this, ptr noundef %arena) unnamed_addr #3 align 2 personality ptr @__gxx_personality_v0 {
entry:
  %_internal_metadata_.i.i = getelementptr inbounds i8, ptr %this, i64 8
  store ptr %arena, ptr %_internal_metadata_.i.i, align 8
  store ptr getelementptr inbounds ({ [22 x ptr] }, ptr @_ZTVN11conformance18ConformanceRequestE, i64 0, i32 0, i64 2), ptr %this, align 8
  %_cached_size_ = getelementptr inbounds i8, ptr %this, i64 56
  store i32 0, ptr %_cached_size_, align 8
  %0 = load atomic i32, ptr @scc_info_ConformanceRequest_conformance_2fconformance_2eproto acquire, align 8
  %cmp.not.i.i = icmp eq i32 %0, 0
  br i1 %cmp.not.i.i, label %invoke.cont2, label %if.then.i.i

if.then.i.i:                                      ; preds = %entry
  tail call void @_ZN6google8protobuf8internal11InitSCCImplEPNS1_11SCCInfoBaseE(ptr noundef nonnull @scc_info_ConformanceRequest_conformance_2fconformance_2eproto)
  br label %invoke.cont2

invoke.cont2:                                     ; preds = %if.then.i.i, %entry
  %message_type_.i = getelementptr inbounds i8, ptr %this, i64 16
  store ptr @_ZN6google8protobuf8internal26fixed_address_empty_stringB5cxx11E, ptr %message_type_.i, align 8
  %jspb_encoding_options_.i = getelementptr inbounds i8, ptr %this, i64 24
  tail call void @llvm.memset.p0.i64(ptr noundef nonnull align 8 dereferenceable(17) %jspb_encoding_options_.i, i8 0, i64 17, i1 false)
  %_oneof_case_.i.i = getelementptr inbounds i8, ptr %this, i64 60
  store i32 0, ptr %_oneof_case_.i.i, align 4
  ret void
}